target datalayout = "e-m:e-p270:32:32-p271:32:32-p272:64:64-i64:64-i128:128-f80:128-n8:16:32:64-S128"
target triple = "x86_64-pc-linux-gnu"

%struct.SurfaceDataRasInfo = type { %struct.SurfaceDataBounds, ptr, i32, i32, i32, i32, ptr, ptr, ptr, ptr, ptr, ptr, i32, %union.anon.0 }
%struct.SurfaceDataBounds = type { i32, i32, i32, i32 }
%union.anon.0 = type { ptr, [56 x i8] }

; Function Attrs: nounwind uwtable
define hidden void @IntArgbToIntRgbxConvert(ptr noundef %0, ptr noundef %1, i32 noundef %2, i32 noundef %3, ptr noundef %4, ptr noundef %5, ptr noundef %6, ptr noundef %7) #1 {
  %9 = alloca ptr, align 8
  %10 = alloca ptr, align 8
  %11 = alloca i32, align 4
  %12 = alloca i32, align 4
  %13 = alloca ptr, align 8
  %14 = alloca ptr, align 8
  %15 = alloca ptr, align 8
  %16 = alloca ptr, align 8
  %17 = alloca ptr, align 8
  %18 = alloca ptr, align 8
  %19 = alloca i32, align 4
  %20 = alloca i32, align 4
  %21 = alloca i32, align 4
  %22 = alloca i32, align 4
  store ptr %0, ptr %9, align 8
  store ptr %1, ptr %10, align 8
  store i32 %2, ptr %11, align 4
  store i32 %3, ptr %12, align 4
  store ptr %4, ptr %13, align 8
  store ptr %5, ptr %14, align 8
  store ptr %6, ptr %15, align 8
  store ptr %7, ptr %16, align 8
  br label %23

23:                                               ; preds = %8
  %24 = load ptr, ptr %9, align 8
  store ptr %24, ptr %17, align 8
  %25 = load ptr, ptr %10, align 8
  store ptr %25, ptr %18, align 8
  %26 = load ptr, ptr %13, align 8
  %27 = getelementptr inbounds %struct.SurfaceDataRasInfo, ptr %26, i32 0, i32 4
  %28 = load i32, ptr %27, align 8
  store i32 %28, ptr %19, align 4
  %29 = load ptr, ptr %14, align 8
  %30 = getelementptr inbounds %struct.SurfaceDataRasInfo, ptr %29, i32 0, i32 4
  %31 = load i32, ptr %30, align 8
  store i32 %31, ptr %20, align 4
  %32 = load i32, ptr %11, align 4
  %33 = mul i32 %32, 4
  %34 = load i32, ptr %19, align 4
  %35 = sub i32 %34, %33
  store i32 %35, ptr %19, align 4
  %36 = load i32, ptr %11, align 4
  %37 = mul i32 %36, 4
  %38 = load i32, ptr %20, align 4
  %39 = sub i32 %38, %37
  store i32 %39, ptr %20, align 4
  br label %40

40:                                               ; preds = %77, %23
  %41 = load i32, ptr %11, align 4
  store i32 %41, ptr %21, align 4
  br label %42

42:                                               ; preds = %60, %40
  br label %43

43:                                               ; preds = %42
  %44 = load ptr, ptr %17, align 8
  %45 = getelementptr inbounds i32, ptr %44, i64 0
  %46 = load i32, ptr %45, align 4
  store i32 %46, ptr %22, align 4
  %47 = load i32, ptr %22, align 4
  %48 = shl i32 %47, 8
  %49 = load ptr, ptr %18, align 8
  %50 = getelementptr inbounds i32, ptr %49, i64 0
  store i32 %48, ptr %50, align 4
  br label %51

51:                                               ; preds = %43
  %52 = load ptr, ptr %17, align 8
  %53 = ptrtoint ptr %52 to i64
  %54 = add nsw i64 %53, 4
  %55 = inttoptr i64 %54 to ptr
  store ptr %55, ptr %17, align 8
  %56 = load ptr, ptr %18, align 8
  %57 = ptrtoint ptr %56 to i64
  %58 = add nsw i64 %57, 4
  %59 = inttoptr i64 %58 to ptr
  store ptr %59, ptr %18, align 8
  br label %60

60:                                               ; preds = %51
  %61 = load i32, ptr %21, align 4
  %62 = add i32 %61, -1
  store i32 %62, ptr %21, align 4
  %63 = icmp ugt i32 %62, 0
  br i1 %63, label %42, label %64, !llvm.loop !9

64:                                               ; preds = %60
  %65 = load ptr, ptr %17, align 8
  %66 = ptrtoint ptr %65 to i64
  %67 = load i32, ptr %19, align 4
  %68 = sext i32 %67 to i64
  %69 = add nsw i64 %66, %68
  %70 = inttoptr i64 %69 to ptr
  store ptr %70, ptr %17, align 8
  %71 = load ptr, ptr %18, align 8
  %72 = ptrtoint ptr %71 to i64
  %73 = load i32, ptr %20, align 4
  %74 = sext i32 %73 to i64
  %75 = add nsw i64 %72, %74
  %76 = inttoptr i64 %75 to ptr
  store ptr %76, ptr %18, align 8
  br label %77

77:                                               ; preds = %64
  %78 = load i32, ptr %12, align 4
  %79 = add i32 %78, -1
  store i32 %79, ptr %12, align 4
  %80 = icmp ugt i32 %79, 0
  br i1 %80, label %40, label %81, !llvm.loop !10

81:                                               ; preds = %77
  br label %82

82:                                               ; preds = %81
  ret void
}