; Function Attrs: nofree norecurse nosync nounwind memory(readwrite, inaccessiblemem: none) uwtable
define hidden void @IntArgbToIntRgbxConvert(ptr noundef %0, ptr noundef %1, i32 noundef %2, i32 noundef %3, ptr nocapture noundef readonly %4, ptr nocapture noundef readonly %5, ptr nocapture readnone %6, ptr nocapture readnone %7) #1 {
  %9 = getelementptr inbounds i8, ptr %4, i64 32
  %10 = load i32, ptr %9, align 8
  %11 = getelementptr inbounds i8, ptr %5, i64 32
  %12 = load i32, ptr %11, align 8
  %13 = shl i32 %2, 2
  %14 = sub i32 %10, %13
  %15 = sub i32 %12, %13
  %16 = sext i32 %14 to i64
  %17 = sext i32 %15 to i64
  br label %18

18:                                               ; preds = %29, %8
  %.021 = phi ptr [ %0, %8 ], [ %31, %29 ]
  %.020 = phi ptr [ %1, %8 ], [ %33, %29 ]
  %.0 = phi i32 [ %3, %8 ], [ %34, %29 ]
  br label %19

19:                                               ; preds = %19, %18
  %.122 = phi ptr [ %.021, %18 ], [ %24, %19 ]
  %.1 = phi ptr [ %.020, %18 ], [ %27, %19 ]
  %.019 = phi i32 [ %2, %18 ], [ %28, %19 ]
  %20 = load i32, ptr %.122, align 4
  %21 = shl i32 %20, 8
  store i32 %21, ptr %.1, align 4
  %22 = ptrtoint ptr %.122 to i64
  %23 = add nsw i64 %22, 4
  %24 = inttoptr i64 %23 to ptr
  %25 = ptrtoint ptr %.1 to i64
  %26 = add nsw i64 %25, 4
  %27 = inttoptr i64 %26 to ptr
  %28 = add i32 %.019, -1
  %.not = icmp eq i32 %28, 0
  br i1 %.not, label %29, label %19, !llvm.loop !9

29:                                               ; preds = %19
  %30 = add nsw i64 %23, %16
  %31 = inttoptr i64 %30 to ptr
  %32 = add nsw i64 %26, %17
  %33 = inttoptr i64 %32 to ptr
  %34 = add i32 %.0, -1
  %.not24 = icmp eq i32 %34, 0
  br i1 %.not24, label %35, label %18, !llvm.loop !10

35:                                               ; preds = %29
  ret void
}